#include <math.h>
#include <stdio.h>
#include <stdlib.h>
#include <string.h>

int issn(int n);
int main()
{
	
int n,a,b=0,c;
	
int z[10000];
	
scanf("%d",&n);
	

    for(a=3;a<n+100;a++)
	
{
	
	
if(issn(a))
	
	
{
	
	
	
z[b]=a;
	
	
	
b++;
	
	
}
	
}
	

	
for(a=0;a<=b-1;a++)
	
{
	
	
for(c=a;c<b-1;c++)
	
	
{
	
	
	
if(z[a]+z[c]==n)
	
	
	
{
	
	
	
	
printf("%d %d\n",z[a],z[c]);
	
	
	
}
	
	
}
	
}
	

	
return 0;
}

int issn(int n)
{
    int a,b=1;
	
for(a=2;a<n;a++)
	
{
	
	
if(n%a==0) b=0;
	
}
    return b;
}